target datalayout = "e-m:e-p270:32:32-p271:32:32-p272:64:64-i64:64-i128:128-f80:128-n8:16:32:64-S128"
target triple = "x86_64-pc-linux-gnu"

@avail_cores_per_sock = internal global ptr null, align 8

; Function Attrs: nounwind uwtable
define internal void @_reduce_restricted_cores(ptr noundef %0, ptr noundef %1, ptr noundef %2, ptr noundef %3, ptr noundef %4, ptr noundef %5, i64 noundef %6, i16 noundef zeroext %7, i16 noundef zeroext %8, i16 noundef zeroext %9, ptr noundef %10, i1 noundef zeroext %11, i1 noundef zeroext %12) #0 {
  %14 = alloca ptr, align 8
  %15 = alloca ptr, align 8
  %16 = alloca ptr, align 8
  %17 = alloca ptr, align 8
  %18 = alloca ptr, align 8
  %19 = alloca ptr, align 8
  %20 = alloca i64, align 8
  %21 = alloca i16, align 2
  %22 = alloca i16, align 2
  %23 = alloca i16, align 2
  %24 = alloca ptr, align 8
  %25 = alloca i8, align 1
  %26 = alloca i8, align 1
  %27 = alloca i32, align 4
  %28 = alloca i32, align 4
  %29 = alloca i32, align 4
  %30 = alloca i32, align 4
  %31 = alloca i32, align 4
  %32 = alloca i32, align 4
  %33 = alloca i32, align 4
  %34 = alloca i32, align 4
  store ptr %0, ptr %14, align 8
  store ptr %1, ptr %15, align 8
  store ptr %2, ptr %16, align 8
  store ptr %3, ptr %17, align 8
  store ptr %4, ptr %18, align 8
  store ptr %5, ptr %19, align 8
  store i64 %6, ptr %20, align 8
  store i16 %7, ptr %21, align 2
  store i16 %8, ptr %22, align 2
  store i16 %9, ptr %23, align 2
  store ptr %10, ptr %24, align 8
  %35 = zext i1 %11 to i8
  store i8 %35, ptr %25, align 1
  %36 = zext i1 %12 to i8
  store i8 %36, ptr %26, align 1
  call void @llvm.lifetime.start.p0(i64 4, ptr %27) #3
  %37 = load i8, ptr %25, align 1, !range !11, !noundef !12
  %38 = trunc i8 %37 to i1
  br i1 %38, label %139, label %39

39:                                               ; preds = %13
  %40 = load i8, ptr %26, align 1, !range !11, !noundef !12
  %41 = trunc i8 %40 to i1
  br i1 %41, label %139, label %42

42:                                               ; preds = %39
  call void @llvm.lifetime.start.p0(i64 4, ptr %28) #3
  store i32 0, ptr %28, align 4
  br label %43

43:                                               ; preds = %134, %42
  %44 = load i32, ptr %28, align 4
  %45 = load i16, ptr %21, align 2
  %46 = zext i16 %45 to i32
  %47 = icmp slt i32 %44, %46
  br i1 %47, label %49, label %48

48:                                               ; preds = %43
  store i32 2, ptr %29, align 4
  br label %137

49:                                               ; preds = %43
  %50 = load ptr, ptr %17, align 8
  %51 = load i16, ptr %50, align 2
  %52 = zext i16 %51 to i64
  %53 = load i64, ptr %20, align 8
  %54 = icmp ule i64 %52, %53
  br i1 %54, label %55, label %56

55:                                               ; preds = %49
  store i32 2, ptr %29, align 4
  br label %137

56:                                               ; preds = %49
  %57 = load ptr, ptr %24, align 8
  %58 = load i32, ptr %28, align 4
  %59 = sext i32 %58 to i64
  %60 = getelementptr inbounds i8, ptr %57, i64 %59
  %61 = load i8, ptr %60, align 1, !range !11, !noundef !12
  %62 = trunc i8 %61 to i1
  br i1 %62, label %70, label %63

63:                                               ; preds = %56
  %64 = load ptr, ptr %19, align 8
  %65 = load i32, ptr %28, align 4
  %66 = sext i32 %65 to i64
  %67 = getelementptr inbounds i16, ptr %64, i64 %66
  %68 = load i16, ptr %67, align 2
  %69 = icmp ne i16 %68, 0
  br i1 %69, label %71, label %70

70:                                               ; preds = %63, %56
  br label %134

71:                                               ; preds = %63
  call void @llvm.lifetime.start.p0(i64 4, ptr %30) #3
  store i32 0, ptr %30, align 4
  br label %72

72:                                               ; preds = %129, %71
  %73 = load i32, ptr %30, align 4
  %74 = load i16, ptr %22, align 2
  %75 = zext i16 %74 to i32
  %76 = icmp slt i32 %73, %75
  br i1 %76, label %78, label %77

77:                                               ; preds = %72
  store i32 5, ptr %29, align 4
  br label %132

78:                                               ; preds = %72
  call void @llvm.lifetime.start.p0(i64 4, ptr %31) #3
  %79 = load i32, ptr %28, align 4
  %80 = load i16, ptr %22, align 2
  %81 = zext i16 %80 to i32
  %82 = mul nsw i32 %79, %81
  %83 = load i32, ptr %30, align 4
  %84 = add nsw i32 %82, %83
  store i32 %84, ptr %31, align 4
  %85 = load ptr, ptr %18, align 8
  %86 = load i32, ptr %31, align 4
  %87 = sext i32 %86 to i64
  %88 = call i32 @slurm_bit_test(ptr noundef %85, i64 noundef %87)
  %89 = icmp ne i32 %88, 0
  br i1 %89, label %90, label %96

90:                                               ; preds = %78
  %91 = load ptr, ptr %14, align 8
  %92 = load i32, ptr %31, align 4
  %93 = sext i32 %92 to i64
  %94 = call i32 @slurm_bit_test(ptr noundef %91, i64 noundef %93)
  %95 = icmp ne i32 %94, 0
  br i1 %95, label %97, label %96

96:                                               ; preds = %90, %78
  store i32 7, ptr %29, align 4
  br label %126

97:                                               ; preds = %90
  %98 = load ptr, ptr %14, align 8
  %99 = load i32, ptr %31, align 4
  %100 = sext i32 %99 to i64
  call void @bit_clear(ptr noundef %98, i64 noundef %100)
  %101 = load ptr, ptr @avail_cores_per_sock, align 8
  %102 = load i32, ptr %28, align 4
  %103 = sext i32 %102 to i64
  %104 = getelementptr inbounds i16, ptr %101, i64 %103
  %105 = load i16, ptr %104, align 2
  %106 = add i16 %105, -1
  store i16 %106, ptr %104, align 2
  %107 = load ptr, ptr %16, align 8
  %108 = load i16, ptr %107, align 2
  %109 = add i16 %108, -1
  store i16 %109, ptr %107, align 2
  %110 = load ptr, ptr %17, align 8
  %111 = load i16, ptr %110, align 2
  %112 = add i16 %111, -1
  store i16 %112, ptr %110, align 2
  %113 = load ptr, ptr %19, align 8
  %114 = load i32, ptr %28, align 4
  %115 = sext i32 %114 to i64
  %116 = getelementptr inbounds i16, ptr %113, i64 %115
  %117 = load i16, ptr %116, align 2
  %118 = add i16 %117, -1
  store i16 %118, ptr %116, align 2
  %119 = load ptr, ptr %17, align 8
  %120 = load i16, ptr %119, align 2
  %121 = zext i16 %120 to i64
  %122 = load i64, ptr %20, align 8
  %123 = icmp ule i64 %121, %122
  br i1 %123, label %124, label %125

124:                                              ; preds = %97
  store i32 5, ptr %29, align 4
  br label %126

125:                                              ; preds = %97
  store i32 0, ptr %29, align 4
  br label %126

126:                                              ; preds = %125, %124, %96
  call void @llvm.lifetime.end.p0(i64 4, ptr %31) #3
  %127 = load i32, ptr %29, align 4
  switch i32 %127, label %132 [
    i32 0, label %128
    i32 7, label %129
  ]

128:                                              ; preds = %126
  br label %129

129:                                              ; preds = %128, %126
  %130 = load i32, ptr %30, align 4
  %131 = add nsw i32 %130, 1
  store i32 %131, ptr %30, align 4
  br label %72, !llvm.loop !26

132:                                              ; preds = %126, %77
  call void @llvm.lifetime.end.p0(i64 4, ptr %30) #3
  br label %133

133:                                              ; preds = %132
  br label %134

134:                                              ; preds = %133, %70
  %135 = load i32, ptr %28, align 4
  %136 = add nsw i32 %135, 1
  store i32 %136, ptr %28, align 4
  br label %43, !llvm.loop !27

137:                                              ; preds = %55, %48
  call void @llvm.lifetime.end.p0(i64 4, ptr %28) #3
  br label %138

138:                                              ; preds = %137
  br label %139

139:                                              ; preds = %138, %39, %13
  call void @llvm.lifetime.start.p0(i64 4, ptr %32) #3
  store i32 0, ptr %32, align 4
  br label %140

140:                                              ; preds = %231, %139
  %141 = load i32, ptr %32, align 4
  %142 = load i16, ptr %21, align 2
  %143 = zext i16 %142 to i32
  %144 = icmp slt i32 %141, %143
  br i1 %144, label %146, label %145

145:                                              ; preds = %140
  store i32 8, ptr %29, align 4
  br label %234

146:                                              ; preds = %140
  %147 = load ptr, ptr %17, align 8
  %148 = load i16, ptr %147, align 2
  %149 = zext i16 %148 to i64
  %150 = load i64, ptr %20, align 8
  %151 = icmp ule i64 %149, %150
  br i1 %151, label %152, label %153

152:                                              ; preds = %146
  store i32 8, ptr %29, align 4
  br label %234

153:                                              ; preds = %146
  %154 = load ptr, ptr %24, align 8
  %155 = load i32, ptr %32, align 4
  %156 = sext i32 %155 to i64
  %157 = getelementptr inbounds i8, ptr %154, i64 %156
  %158 = load i8, ptr %157, align 1, !range !11, !noundef !12
  %159 = trunc i8 %158 to i1
  br i1 %159, label %160, label %167

160:                                              ; preds = %153
  %161 = load ptr, ptr %19, align 8
  %162 = load i32, ptr %32, align 4
  %163 = sext i32 %162 to i64
  %164 = getelementptr inbounds i16, ptr %161, i64 %163
  %165 = load i16, ptr %164, align 2
  %166 = icmp ne i16 %165, 0
  br i1 %166, label %168, label %167

167:                                              ; preds = %160, %153
  br label %231

168:                                              ; preds = %160
  call void @llvm.lifetime.start.p0(i64 4, ptr %33) #3
  store i32 0, ptr %33, align 4
  br label %169

169:                                              ; preds = %226, %168
  %170 = load i32, ptr %33, align 4
  %171 = load i16, ptr %22, align 2
  %172 = zext i16 %171 to i32
  %173 = icmp slt i32 %170, %172
  br i1 %173, label %175, label %174

174:                                              ; preds = %169
  store i32 11, ptr %29, align 4
  br label %229

175:                                              ; preds = %169
  call void @llvm.lifetime.start.p0(i64 4, ptr %34) #3
  %176 = load i32, ptr %32, align 4
  %177 = load i16, ptr %22, align 2
  %178 = zext i16 %177 to i32
  %179 = mul nsw i32 %176, %178
  %180 = load i32, ptr %33, align 4
  %181 = add nsw i32 %179, %180
  store i32 %181, ptr %34, align 4
  %182 = load ptr, ptr %18, align 8
  %183 = load i32, ptr %34, align 4
  %184 = sext i32 %183 to i64
  %185 = call i32 @slurm_bit_test(ptr noundef %182, i64 noundef %184)
  %186 = icmp ne i32 %185, 0
  br i1 %186, label %187, label %193

187:                                              ; preds = %175
  %188 = load ptr, ptr %14, align 8
  %189 = load i32, ptr %34, align 4
  %190 = sext i32 %189 to i64
  %191 = call i32 @slurm_bit_test(ptr noundef %188, i64 noundef %190)
  %192 = icmp ne i32 %191, 0
  br i1 %192, label %194, label %193

193:                                              ; preds = %187, %175
  store i32 13, ptr %29, align 4
  br label %223

194:                                              ; preds = %187
  %195 = load ptr, ptr %14, align 8
  %196 = load i32, ptr %34, align 4
  %197 = sext i32 %196 to i64
  call void @bit_clear(ptr noundef %195, i64 noundef %197)
  %198 = load ptr, ptr @avail_cores_per_sock, align 8
  %199 = load i32, ptr %32, align 4
  %200 = sext i32 %199 to i64
  %201 = getelementptr inbounds i16, ptr %198, i64 %200
  %202 = load i16, ptr %201, align 2
  %203 = add i16 %202, -1
  store i16 %203, ptr %201, align 2
  %204 = load ptr, ptr %16, align 8
  %205 = load i16, ptr %204, align 2
  %206 = add i16 %205, -1
  store i16 %206, ptr %204, align 2
  %207 = load ptr, ptr %17, align 8
  %208 = load i16, ptr %207, align 2
  %209 = add i16 %208, -1
  store i16 %209, ptr %207, align 2
  %210 = load ptr, ptr %19, align 8
  %211 = load i32, ptr %32, align 4
  %212 = sext i32 %211 to i64
  %213 = getelementptr inbounds i16, ptr %210, i64 %212
  %214 = load i16, ptr %213, align 2
  %215 = add i16 %214, -1
  store i16 %215, ptr %213, align 2
  %216 = load ptr, ptr %17, align 8
  %217 = load i16, ptr %216, align 2
  %218 = zext i16 %217 to i64
  %219 = load i64, ptr %20, align 8
  %220 = icmp ule i64 %218, %219
  br i1 %220, label %221, label %222

221:                                              ; preds = %194
  store i32 11, ptr %29, align 4
  br label %223

222:                                              ; preds = %194
  store i32 0, ptr %29, align 4
  br label %223

223:                                              ; preds = %222, %221, %193
  call void @llvm.lifetime.end.p0(i64 4, ptr %34) #3
  %224 = load i32, ptr %29, align 4
  switch i32 %224, label %229 [
    i32 0, label %225
    i32 13, label %226
  ]

225:                                              ; preds = %223
  br label %226

226:                                              ; preds = %225, %223
  %227 = load i32, ptr %33, align 4
  %228 = add nsw i32 %227, 1
  store i32 %228, ptr %33, align 4
  br label %169, !llvm.loop !28

229:                                              ; preds = %223, %174
  call void @llvm.lifetime.end.p0(i64 4, ptr %33) #3
  br label %230

230:                                              ; preds = %229
  br label %231

231:                                              ; preds = %230, %167
  %232 = load i32, ptr %32, align 4
  %233 = add nsw i32 %232, 1
  store i32 %233, ptr %32, align 4
  br label %140, !llvm.loop !29

234:                                              ; preds = %152, %145
  call void @llvm.lifetime.end.p0(i64 4, ptr %32) #3
  br label %235

235:                                              ; preds = %234
  %236 = load ptr, ptr %16, align 8
  %237 = load i16, ptr %236, align 2
  %238 = zext i16 %237 to i32
  %239 = load i16, ptr %23, align 2
  %240 = zext i16 %239 to i32
  %241 = mul nsw i32 %238, %240
  store i32 %241, ptr %27, align 4
  %242 = load ptr, ptr %15, align 8
  %243 = load i16, ptr %242, align 2
  %244 = zext i16 %243 to i32
  %245 = load i32, ptr %27, align 4
  %246 = icmp slt i32 %244, %245
  br i1 %246, label %247, label %251

247:                                              ; preds = %235
  %248 = load i32, ptr %27, align 4
  %249 = trunc i32 %248 to i16
  %250 = load ptr, ptr %15, align 8
  store i16 %249, ptr %250, align 2
  br label %251

251:                                              ; preds = %247, %235
  call void @llvm.lifetime.end.p0(i64 4, ptr %27) #3
  ret void
}