; Function Attrs: nounwind uwtable
define internal fastcc void @_reduce_restricted_cores(ptr noundef %0, ptr noundef captures(none) %1, ptr noundef nonnull captures(none) %2, ptr noundef nonnull captures(none) %3, ptr noundef %4, ptr noundef captures(none) %5, i64 noundef %6, i16 noundef zeroext %7, i16 noundef zeroext %8, i16 noundef zeroext %9, ptr noundef readonly captures(none) %10, i1 noundef zeroext %11, i1 noundef zeroext %12) unnamed_addr #0 {
  %brmerge = or i1 %11, %12
  br i1 %brmerge, label %.loopexit92, label %.preheader91

.preheader91:                                     ; preds = %13
  %.not109 = icmp eq i16 %7, 0
  br i1 %.not109, label %._crit_edge, label %.lr.ph96

.lr.ph96:                                         ; preds = %.preheader91
  %14 = zext i16 %8 to i32
  %.not110 = icmp eq i16 %8, 0
  br i1 %.not110, label %._crit_edge, label %.lr.ph96.split.us.preheader

.lr.ph96.split.us.preheader:                      ; preds = %.lr.ph96
  %15 = zext i16 %8 to i64
  %wide.trip.count = zext i16 %7 to i64
  br label %.lr.ph96.split.us

.lr.ph96.split.us:                                ; preds = %.lr.ph96.split.us.preheader, %.loopexit90.us
  %indvars.iv = phi i64 [ 0, %.lr.ph96.split.us.preheader ], [ %indvars.iv.next, %.loopexit90.us ]
  %16 = load i16, ptr %3, align 2
  %17 = zext i16 %16 to i64
  %.not.us = icmp ult i64 %6, %17
  br i1 %.not.us, label %18, label %.loopexit92

18:                                               ; preds = %.lr.ph96.split.us
  %19 = getelementptr inbounds nuw i8, ptr %10, i64 %indvars.iv
  %20 = load i8, ptr %19, align 1, !range !16, !noundef !17
  %21 = trunc nuw i8 %20 to i1
  br i1 %21, label %.loopexit90.us, label %22

22:                                               ; preds = %18
  %23 = getelementptr inbounds nuw i16, ptr %5, i64 %indvars.iv
  %24 = load i16, ptr %23, align 2
  %.not74.us = icmp eq i16 %24, 0
  br i1 %.not74.us, label %.loopexit90.us, label %.preheader89.us

.backedge114:                                     ; preds = %.backedge114.backedge, %.preheader89.us
  %.06893.us = phi i32 [ 0, %.preheader89.us ], [ %.06893.us.be, %.backedge114.backedge ]
  %25 = zext i32 %.06893.us to i64
  %26 = add nuw nsw i64 %45, %25
  %27 = tail call i32 @slurm_bit_test(ptr noundef %4, i64 noundef %26) #5
  %.not75.us = icmp eq i32 %27, 0
  br i1 %.not75.us, label %select.unfold.us, label %28

28:                                               ; preds = %.backedge114
  %29 = tail call i32 @slurm_bit_test(ptr noundef %0, i64 noundef %26) #5
  %.not76.us = icmp eq i32 %29, 0
  br i1 %.not76.us, label %select.unfold.us, label %30

30:                                               ; preds = %28
  tail call void @bit_clear(ptr noundef %0, i64 noundef %26) #5
  %31 = load ptr, ptr @avail_cores_per_sock, align 8
  %32 = getelementptr inbounds nuw i16, ptr %31, i64 %indvars.iv
  %33 = load i16, ptr %32, align 2
  %34 = add i16 %33, -1
  store i16 %34, ptr %32, align 2
  %35 = load i16, ptr %2, align 2
  %36 = add i16 %35, -1
  store i16 %36, ptr %2, align 2
  %37 = load i16, ptr %3, align 2
  %38 = add i16 %37, -1
  store i16 %38, ptr %3, align 2
  %39 = load i16, ptr %23, align 2
  %40 = add i16 %39, -1
  store i16 %40, ptr %23, align 2
  %41 = load i16, ptr %3, align 2
  %42 = zext i16 %41 to i64
  %.not77.us = icmp ult i64 %6, %42
  %43 = add nuw nsw i32 %.06893.us, 1
  %44 = icmp samesign ult i32 %43, %14
  %or.cond = select i1 %.not77.us, i1 %44, i1 false
  br i1 %or.cond, label %.backedge114.backedge, label %.loopexit90.us

select.unfold.us:                                 ; preds = %28, %.backedge114
  %.old = add nuw nsw i32 %.06893.us, 1
  %.old105 = icmp samesign ult i32 %.old, %14
  br i1 %.old105, label %.backedge114.backedge, label %.loopexit90.us

.backedge114.backedge:                            ; preds = %select.unfold.us, %30
  %.06893.us.be = phi i32 [ %.old, %select.unfold.us ], [ %43, %30 ]
  br label %.backedge114, !llvm.loop !25

.loopexit90.us:                                   ; preds = %30, %select.unfold.us, %22, %18
  %indvars.iv.next = add nuw nsw i64 %indvars.iv, 1
  %exitcond.not = icmp eq i64 %indvars.iv.next, %wide.trip.count
  br i1 %exitcond.not, label %.loopexit92, label %.lr.ph96.split.us, !llvm.loop !26

.preheader89.us:                                  ; preds = %22
  %45 = mul nuw nsw i64 %indvars.iv, %15
  br label %.backedge114

.loopexit92:                                      ; preds = %.lr.ph96.split.us, %.loopexit90.us, %13
  %.not111 = icmp eq i16 %7, 0
  br i1 %.not111, label %._crit_edge, label %.lr.ph102

.lr.ph102:                                        ; preds = %.loopexit92
  %46 = zext i16 %8 to i32
  %.not112 = icmp eq i16 %8, 0
  br i1 %.not112, label %._crit_edge, label %.lr.ph102.split.us.preheader

.lr.ph102.split.us.preheader:                     ; preds = %.lr.ph102
  %47 = zext i16 %8 to i64
  %wide.trip.count120 = zext i16 %7 to i64
  br label %.lr.ph102.split.us

.lr.ph102.split.us:                               ; preds = %.lr.ph102.split.us.preheader, %.loopexit.us
  %indvars.iv117 = phi i64 [ 0, %.lr.ph102.split.us.preheader ], [ %indvars.iv.next118, %.loopexit.us ]
  %48 = load i16, ptr %3, align 2
  %49 = zext i16 %48 to i64
  %.not78.us = icmp ult i64 %6, %49
  br i1 %.not78.us, label %50, label %._crit_edge

50:                                               ; preds = %.lr.ph102.split.us
  %51 = getelementptr inbounds nuw i8, ptr %10, i64 %indvars.iv117
  %52 = load i8, ptr %51, align 1, !range !16, !noundef !17
  %53 = trunc nuw i8 %52 to i1
  br i1 %53, label %54, label %.loopexit.us

54:                                               ; preds = %50
  %55 = getelementptr inbounds nuw i16, ptr %5, i64 %indvars.iv117
  %56 = load i16, ptr %55, align 2
  %.not79.us = icmp eq i16 %56, 0
  br i1 %.not79.us, label %.loopexit.us, label %.preheader.us

.backedge:                                        ; preds = %.backedge.backedge, %.preheader.us
  %.06598.us = phi i32 [ 0, %.preheader.us ], [ %.06598.us.be, %.backedge.backedge ]
  %57 = zext i32 %.06598.us to i64
  %58 = add nuw nsw i64 %77, %57
  %59 = tail call i32 @slurm_bit_test(ptr noundef %4, i64 noundef %58) #5
  %.not80.us = icmp eq i32 %59, 0
  br i1 %.not80.us, label %select.unfold85.us, label %60

60:                                               ; preds = %.backedge
  %61 = tail call i32 @slurm_bit_test(ptr noundef %0, i64 noundef %58) #5
  %.not81.us = icmp eq i32 %61, 0
  br i1 %.not81.us, label %select.unfold85.us, label %62

62:                                               ; preds = %60
  tail call void @bit_clear(ptr noundef %0, i64 noundef %58) #5
  %63 = load ptr, ptr @avail_cores_per_sock, align 8
  %64 = getelementptr inbounds nuw i16, ptr %63, i64 %indvars.iv117
  %65 = load i16, ptr %64, align 2
  %66 = add i16 %65, -1
  store i16 %66, ptr %64, align 2
  %67 = load i16, ptr %2, align 2
  %68 = add i16 %67, -1
  store i16 %68, ptr %2, align 2
  %69 = load i16, ptr %3, align 2
  %70 = add i16 %69, -1
  store i16 %70, ptr %3, align 2
  %71 = load i16, ptr %55, align 2
  %72 = add i16 %71, -1
  store i16 %72, ptr %55, align 2
  %73 = load i16, ptr %3, align 2
  %74 = zext i16 %73 to i64
  %.not82.us = icmp ult i64 %6, %74
  %75 = add nuw nsw i32 %.06598.us, 1
  %76 = icmp samesign ult i32 %75, %46
  %or.cond108 = select i1 %.not82.us, i1 %76, i1 false
  br i1 %or.cond108, label %.backedge.backedge, label %.loopexit.us

select.unfold85.us:                               ; preds = %60, %.backedge
  %.old106 = add nuw nsw i32 %.06598.us, 1
  %.old107 = icmp samesign ult i32 %.old106, %46
  br i1 %.old107, label %.backedge.backedge, label %.loopexit.us

.backedge.backedge:                               ; preds = %select.unfold85.us, %62
  %.06598.us.be = phi i32 [ %.old106, %select.unfold85.us ], [ %75, %62 ]
  br label %.backedge, !llvm.loop !27

.loopexit.us:                                     ; preds = %62, %select.unfold85.us, %54, %50
  %indvars.iv.next118 = add nuw nsw i64 %indvars.iv117, 1
  %exitcond121.not = icmp eq i64 %indvars.iv.next118, %wide.trip.count120
  br i1 %exitcond121.not, label %._crit_edge, label %.lr.ph102.split.us, !llvm.loop !28

.preheader.us:                                    ; preds = %54
  %77 = mul nuw nsw i64 %indvars.iv117, %47
  br label %.backedge

._crit_edge:                                      ; preds = %.loopexit.us, %.lr.ph102.split.us, %.lr.ph102, %.lr.ph96, %.preheader91, %.loopexit92
  %78 = load i16, ptr %2, align 2
  %79 = zext i16 %78 to i32
  %80 = zext i16 %9 to i32
  %81 = mul nuw nsw i32 %79, %80
  %82 = load i16, ptr %1, align 2
  %83 = zext i16 %82 to i32
  %84 = icmp samesign ugt i32 %81, %83
  br i1 %84, label %85, label %87

85:                                               ; preds = %._crit_edge
  %86 = trunc i32 %81 to i16
  store i16 %86, ptr %1, align 2
  br label %87

87:                                               ; preds = %85, %._crit_edge
  ret void
}